target datalayout = "e-m:e-p270:32:32-p271:32:32-p272:64:64-i64:64-i128:128-f80:128-n8:16:32:64-S128"
target triple = "x86_64-pc-linux-gnu"

%struct.ccan_list_node = type { ptr, ptr }
%union.pthread_mutex_t = type { %struct.__pthread_mutex_s }
%struct.__pthread_mutex_s = type { i32, i32, i32, i32, i32, i16, i16, %struct.__pthread_internal_list }
%struct.__pthread_internal_list = type { ptr, ptr }
%struct.ccan_list_head = type { %struct.ccan_list_node }
%struct.rb_vm_struct = type { i64, %struct.anon.1, ptr, i64, %struct.ccan_list_head, i32, i8, i64, ptr, [5 x i64], i64, i64, i64, i64, i64, i64, i64, i64, i64, ptr, ptr, ptr, %struct.anon.5, ptr, i32, %struct.ccan_list_head, %union.pthread_mutex_t, i64, i64, i64, i64, i32, %struct.anon.6, ptr, ptr, ptr, ptr, ptr, ptr, ptr, ptr, i64, [1023 x ptr], %struct.anon.7 }
%struct.anon.1 = type { %struct.ccan_list_head, i32, i32, ptr, ptr, %struct.anon.2, %struct.anon.4 }
%struct.anon.2 = type { %union.pthread_mutex_t, ptr, i32, %union.pthread_cond_t, i8 }
%union.pthread_cond_t = type { %struct.__pthread_cond_s }
%struct.__pthread_cond_s = type { %union.__atomic_wide_counter, %union.__atomic_wide_counter, [2 x i32], [2 x i32], i32, i32, [2 x i32] }
%union.__atomic_wide_counter = type { i64 }
%struct.anon.4 = type { %union.pthread_mutex_t, ptr, i8, %union.pthread_cond_t, i32, i32, i32, i32, %struct.ccan_list_head, i32, %struct.ccan_list_head, %struct.ccan_list_head, %struct.ccan_list_head, i8, %union.pthread_cond_t, %union.pthread_cond_t, i8, i32, i32 }
%struct.anon.5 = type { [65 x i64] }
%struct.anon.6 = type { ptr, ptr }
%struct.anon.7 = type { i64, i64, i64, i64 }
%struct.rb_callable_method_entry_struct = type { i64, i64, ptr, i64, i64 }

@ruby_current_vm_ptr = hidden global ptr null, align 8

; Function Attrs: inlinehint nounwind sspstrong uwtable
define internal void @vm_cme_invalidate(ptr noundef %0) #2 {
  %2 = alloca ptr, align 8
  store ptr %0, ptr %2, align 8, !tbaa !113
  %3 = load ptr, ptr %2, align 8, !tbaa !113
  %4 = getelementptr inbounds nuw %struct.rb_callable_method_entry_struct, ptr %3, i32 0, i32 0
  %5 = load i64, ptr %4, align 8, !tbaa !159
  %6 = or i64 %5, 2097152
  store i64 %6, ptr %4, align 8, !tbaa !159
  %7 = load ptr, ptr %2, align 8, !tbaa !113
  call void @rb_yjit_cme_invalidate(ptr noundef %7)
  ret void
}

; Function Attrs: inlinehint nounwind sspstrong uwtable
define internal ptr @rb_current_vm() #2 {
  %1 = load ptr, ptr @ruby_current_vm_ptr, align 8, !tbaa !274
  ret ptr %1
}

; Function Attrs: nounwind sspstrong uwtable
define internal void @invalidate_negative_cache(i64 noundef %0) #0 {
  %2 = alloca i64, align 8
  %3 = alloca i64, align 8
  %4 = alloca ptr, align 8
  store i64 %0, ptr %2, align 8, !tbaa !31
  call void @llvm.lifetime.start.p0(i64 8, ptr %3) #21
  call void @llvm.lifetime.start.p0(i64 8, ptr %4) #21
  %5 = call ptr @rb_current_vm()
  store ptr %5, ptr %4, align 8, !tbaa !274
  %6 = load ptr, ptr %4, align 8, !tbaa !274
  %7 = getelementptr inbounds nuw %struct.rb_vm_struct, ptr %6, i32 0, i32 37
  %8 = load ptr, ptr %7, align 8, !tbaa !522
  %9 = load i64, ptr %2, align 8, !tbaa !31
  %10 = call i32 @rb_id_table_lookup(ptr noundef %8, i64 noundef %9, ptr noundef %3)
  %11 = icmp ne i32 %10, 0
  br i1 %11, label %12, label %20

12:                                               ; preds = %1
  %13 = load ptr, ptr %4, align 8, !tbaa !274
  %14 = getelementptr inbounds nuw %struct.rb_vm_struct, ptr %13, i32 0, i32 37
  %15 = load ptr, ptr %14, align 8, !tbaa !522
  %16 = load i64, ptr %2, align 8, !tbaa !31
  %17 = call i32 @rb_id_table_delete(ptr noundef %15, i64 noundef %16)
  %18 = load i64, ptr %3, align 8, !tbaa !31
  %19 = inttoptr i64 %18 to ptr
  call void @vm_cme_invalidate(ptr noundef %19)
  br label %20

20:                                               ; preds = %12, %1
  call void @llvm.lifetime.end.p0(i64 8, ptr %4) #21
  call void @llvm.lifetime.end.p0(i64 8, ptr %3) #21
  ret void
}