; Function Attrs: nounwind sspstrong uwtable
define internal fastcc void @invalidate_negative_cache(i64 noundef %0) unnamed_addr #2 {
  %2 = alloca i64, align 8
  call void @llvm.lifetime.start.p0(i64 8, ptr nonnull %2) #21
  %3 = load ptr, ptr @ruby_current_vm_ptr, align 8, !tbaa !230
  %4 = getelementptr inbounds nuw i8, ptr %3, i64 1344
  %5 = load ptr, ptr %4, align 8, !tbaa !341
  %6 = call i32 @rb_id_table_lookup(ptr noundef %5, i64 noundef %0, ptr noundef nonnull %2) #21
  %.not = icmp eq i32 %6, 0
  br i1 %.not, label %14, label %7

7:                                                ; preds = %1
  %8 = load ptr, ptr %4, align 8, !tbaa !341
  %9 = call i32 @rb_id_table_delete(ptr noundef %8, i64 noundef %0) #21
  %10 = load i64, ptr %2, align 8, !tbaa !7
  %11 = inttoptr i64 %10 to ptr
  %12 = load i64, ptr %11, align 8, !tbaa !167
  %13 = or i64 %12, 2097152
  store i64 %13, ptr %11, align 8, !tbaa !167
  call void @rb_yjit_cme_invalidate(ptr noundef nonnull %11) #21
  br label %14

14:                                               ; preds = %7, %1
  call void @llvm.lifetime.end.p0(i64 8, ptr nonnull %2) #21
  ret void
}